target datalayout = "e-m:e-p270:32:32-p271:32:32-p272:64:64-i64:64-i128:128-f80:128-n8:16:32:64-S128"
target triple = "x86_64-pc-linux-gnu"

; Function Attrs: nounwind uwtable
define internal ptr @Abc_NtkCreateNode(ptr noundef %0) #0 {
  %2 = alloca ptr, align 8
  store ptr %0, ptr %2, align 8
  %3 = load ptr, ptr %2, align 8
  %4 = call ptr @Abc_NtkCreateObj(ptr noundef %3, i32 noundef 7)
  ret ptr %4
}

; Function Attrs: nounwind uwtable
define ptr @Io_ReadCreateNode(ptr noundef %0, ptr noundef %1, ptr noundef %2, i32 noundef %3) #0 {
  %5 = alloca ptr, align 8
  %6 = alloca ptr, align 8
  %7 = alloca ptr, align 8
  %8 = alloca i32, align 4
  %9 = alloca ptr, align 8
  %10 = alloca ptr, align 8
  %11 = alloca i32, align 4
  store ptr %0, ptr %5, align 8
  store ptr %1, ptr %6, align 8
  store ptr %2, ptr %7, align 8
  store i32 %3, ptr %8, align 4
  %12 = load ptr, ptr %5, align 8
  %13 = call ptr @Abc_NtkCreateNode(ptr noundef %12)
  store ptr %13, ptr %10, align 8
  store i32 0, ptr %11, align 4
  br label %14

14:                                               ; preds = %28, %4
  %15 = load i32, ptr %11, align 4
  %16 = load i32, ptr %8, align 4
  %17 = icmp slt i32 %15, %16
  br i1 %17, label %18, label %31

18:                                               ; preds = %14
  %19 = load ptr, ptr %5, align 8
  %20 = load ptr, ptr %7, align 8
  %21 = load i32, ptr %11, align 4
  %22 = sext i32 %21 to i64
  %23 = getelementptr inbounds ptr, ptr %20, i64 %22
  %24 = load ptr, ptr %23, align 8
  %25 = call ptr @Abc_NtkFindOrCreateNet(ptr noundef %19, ptr noundef %24)
  store ptr %25, ptr %9, align 8
  %26 = load ptr, ptr %10, align 8
  %27 = load ptr, ptr %9, align 8
  call void @Abc_ObjAddFanin(ptr noundef %26, ptr noundef %27)
  br label %28

28:                                               ; preds = %18
  %29 = load i32, ptr %11, align 4
  %30 = add nsw i32 %29, 1
  store i32 %30, ptr %11, align 4
  br label %14, !llvm.loop !10

31:                                               ; preds = %14
  %32 = load ptr, ptr %5, align 8
  %33 = load ptr, ptr %6, align 8
  %34 = call ptr @Abc_NtkFindOrCreateNet(ptr noundef %32, ptr noundef %33)
  store ptr %34, ptr %9, align 8
  %35 = load ptr, ptr %9, align 8
  %36 = load ptr, ptr %10, align 8
  call void @Abc_ObjAddFanin(ptr noundef %35, ptr noundef %36)
  %37 = load ptr, ptr %10, align 8
  ret ptr %37
}