; Function Attrs: nounwind uwtable
define ptr @Io_ReadCreateNode(ptr noundef %0, ptr noundef %1, ptr noundef readonly captures(none) %2, i32 noundef %3) local_unnamed_addr #0 {
  %5 = tail call ptr @Abc_NtkCreateObj(ptr noundef %0, i32 noundef 7) #14
  %6 = icmp sgt i32 %3, 0
  br i1 %6, label %.lr.ph.preheader, label %._crit_edge

.lr.ph.preheader:                                 ; preds = %4
  %wide.trip.count = zext nneg i32 %3 to i64
  br label %.lr.ph

.lr.ph:                                           ; preds = %.lr.ph.preheader, %.lr.ph
  %indvars.iv = phi i64 [ 0, %.lr.ph.preheader ], [ %indvars.iv.next, %.lr.ph ]
  %7 = getelementptr inbounds nuw ptr, ptr %2, i64 %indvars.iv
  %8 = load ptr, ptr %7, align 8
  %9 = tail call ptr @Abc_NtkFindOrCreateNet(ptr noundef %0, ptr noundef %8) #14
  tail call void @Abc_ObjAddFanin(ptr noundef %5, ptr noundef %9) #14
  %indvars.iv.next = add nuw nsw i64 %indvars.iv, 1
  %exitcond.not = icmp eq i64 %indvars.iv.next, %wide.trip.count
  br i1 %exitcond.not, label %._crit_edge, label %.lr.ph, !llvm.loop !10

._crit_edge:                                      ; preds = %.lr.ph, %4
  %10 = tail call ptr @Abc_NtkFindOrCreateNet(ptr noundef %0, ptr noundef %1) #14
  tail call void @Abc_ObjAddFanin(ptr noundef %10, ptr noundef %5) #14
  ret ptr %5
}